; Function Attrs: nounwind sspstrong uwtable
define hidden void @pm_buffer_append_string(ptr noundef captures(none) %0, ptr noundef readonly captures(none) %1, i64 noundef %2) local_unnamed_addr #4 {
  %4 = load i64, ptr %0, align 8, !tbaa !7
  %5 = add i64 %4, %2
  %6 = getelementptr inbounds nuw i8, ptr %0, i64 8
  %7 = load i64, ptr %6, align 8, !tbaa !14
  %8 = icmp ugt i64 %5, %7
  br i1 %8, label %9, label %._crit_edge.i

._crit_edge.i:                                    ; preds = %3
  %.phi.trans.insert.i = getelementptr inbounds nuw i8, ptr %0, i64 16
  %.pre.i = load ptr, ptr %.phi.trans.insert.i, align 8, !tbaa !15
  br label %22

9:                                                ; preds = %3
  %10 = icmp eq i64 %7, 0
  br i1 %10, label %11, label %12

11:                                               ; preds = %9
  store i64 1, ptr %6, align 8, !tbaa !14
  br label %12

12:                                               ; preds = %11, %9
  %.promoted.i.i = phi i64 [ 1, %11 ], [ %7, %9 ]
  %13 = icmp ugt i64 %5, %.promoted.i.i
  br i1 %13, label %.lr.ph.i.i, label %17

.lr.ph.i.i:                                       ; preds = %12, %.lr.ph.i.i
  %14 = phi i64 [ %15, %.lr.ph.i.i ], [ %.promoted.i.i, %12 ]
  %15 = shl i64 %14, 1
  %16 = icmp ugt i64 %5, %15
  br i1 %16, label %.lr.ph.i.i, label %._crit_edge.i.i, !llvm.loop !16

._crit_edge.i.i:                                  ; preds = %.lr.ph.i.i
  store i64 %15, ptr %6, align 8, !tbaa !14
  br label %17

17:                                               ; preds = %._crit_edge.i.i, %12
  %.lcssa.i.i = phi i64 [ %15, %._crit_edge.i.i ], [ %.promoted.i.i, %12 ]
  %18 = getelementptr inbounds nuw i8, ptr %0, i64 16
  %19 = load ptr, ptr %18, align 8, !tbaa !15
  %20 = tail call ptr @realloc(ptr noundef %19, i64 noundef %.lcssa.i.i) #18
  store ptr %20, ptr %18, align 8, !tbaa !15
  %21 = icmp eq ptr %20, null
  br i1 %21, label %pm_buffer_append.exit, label %22

22:                                               ; preds = %17, %._crit_edge.i
  %23 = phi ptr [ %.pre.i, %._crit_edge.i ], [ %20, %17 ]
  store i64 %5, ptr %0, align 8, !tbaa !7
  %24 = getelementptr i8, ptr %23, i64 %4
  tail call void @llvm.memcpy.p0.p0.i64(ptr noundef nonnull align 1 %24, ptr noundef nonnull readonly align 1 %1, i64 noundef %2, i1 noundef false) #19
  br label %pm_buffer_append.exit

pm_buffer_append.exit:                            ; preds = %17, %22
  ret void
}